target datalayout = "e-m:e-p270:32:32-p271:32:32-p272:64:64-i64:64-i128:128-f80:128-n8:16:32:64-S128"
target triple = "x86_64-pc-linux-gnu"

%"class.Json::Features" = type { i8, i8 }
%"class.Json::Reader" = type <{ %"class.std::stack", %"class.std::deque.0", %"class.std::__cxx11::basic_string", ptr, ptr, ptr, ptr, ptr, %"class.std::__cxx11::basic_string", %"class.Json::Features", i8, [5 x i8] }>
%"class.std::stack" = type { %"class.std::deque" }
%"class.std::deque" = type { %"class.std::_Deque_base" }
%"class.std::_Deque_base" = type { %"struct.std::_Deque_base<Json::Value *, std::allocator<Json::Value *>>::_Deque_impl" }
%"struct.std::_Deque_base<Json::Value *, std::allocator<Json::Value *>>::_Deque_impl" = type { %"struct.std::_Deque_base<Json::Value *, std::allocator<Json::Value *>>::_Deque_impl_data" }
%"struct.std::_Deque_base<Json::Value *, std::allocator<Json::Value *>>::_Deque_impl_data" = type { ptr, i64, %"struct.std::_Deque_iterator", %"struct.std::_Deque_iterator" }
%"struct.std::_Deque_iterator" = type { ptr, ptr, ptr, ptr }
%"class.std::deque.0" = type { %"class.std::_Deque_base.1" }
%"class.std::_Deque_base.1" = type { %"struct.std::_Deque_base<Json::Reader::ErrorInfo, std::allocator<Json::Reader::ErrorInfo>>::_Deque_impl" }
%"struct.std::_Deque_base<Json::Reader::ErrorInfo, std::allocator<Json::Reader::ErrorInfo>>::_Deque_impl" = type { %"struct.std::_Deque_base<Json::Reader::ErrorInfo, std::allocator<Json::Reader::ErrorInfo>>::_Deque_impl_data" }
%"struct.std::_Deque_base<Json::Reader::ErrorInfo, std::allocator<Json::Reader::ErrorInfo>>::_Deque_impl_data" = type { ptr, i64, %"struct.std::_Deque_iterator.5", %"struct.std::_Deque_iterator.5" }
%"struct.std::_Deque_iterator.5" = type { ptr, ptr, ptr, ptr }
%"class.std::__cxx11::basic_string" = type { %"struct.std::__cxx11::basic_string<char>::_Alloc_hider", i64, %union.anon }
%"struct.std::__cxx11::basic_string<char>::_Alloc_hider" = type { ptr }
%union.anon = type { i64, [8 x i8] }

; Function Attrs: mustprogress nounwind uwtable
define dso_local void @_ZN4Json6Reader10readNumberEv(ptr noundef nonnull align 8 dereferenceable(267) %0) #0 align 2 {
  %2 = alloca ptr, align 8
  %3 = alloca ptr, align 8
  %4 = alloca i8, align 1
  store ptr %0, ptr %2, align 8
  %5 = load ptr, ptr %2, align 8
  %6 = getelementptr inbounds %"class.Json::Reader", ptr %5, i32 0, i32 5
  %7 = load ptr, ptr %6, align 8
  store ptr %7, ptr %3, align 8
  store i8 48, ptr %4, align 1
  br label %8

8:                                                ; preds = %30, %1
  %9 = load i8, ptr %4, align 1
  %10 = sext i8 %9 to i32
  %11 = icmp sge i32 %10, 48
  br i1 %11, label %12, label %16

12:                                               ; preds = %8
  %13 = load i8, ptr %4, align 1
  %14 = sext i8 %13 to i32
  %15 = icmp sle i32 %14, 57
  br label %16

16:                                               ; preds = %12, %8
  %17 = phi i1 [ false, %8 ], [ %15, %12 ]
  br i1 %17, label %18, label %33

18:                                               ; preds = %16
  %19 = load ptr, ptr %3, align 8
  %20 = getelementptr inbounds %"class.Json::Reader", ptr %5, i32 0, i32 5
  store ptr %19, ptr %20, align 8
  %21 = getelementptr inbounds %"class.Json::Reader", ptr %5, i32 0, i32 4
  %22 = load ptr, ptr %21, align 8
  %23 = icmp ult ptr %19, %22
  br i1 %23, label %24, label %29

24:                                               ; preds = %18
  %25 = load ptr, ptr %3, align 8
  %26 = getelementptr inbounds i8, ptr %25, i32 1
  store ptr %26, ptr %3, align 8
  %27 = load i8, ptr %25, align 1
  %28 = sext i8 %27 to i32
  br label %30

29:                                               ; preds = %18
  br label %30

30:                                               ; preds = %29, %24
  %31 = phi i32 [ %28, %24 ], [ 0, %29 ]
  %32 = trunc i32 %31 to i8
  store i8 %32, ptr %4, align 1
  br label %8, !llvm.loop !15

33:                                               ; preds = %16
  %34 = load i8, ptr %4, align 1
  %35 = sext i8 %34 to i32
  %36 = icmp eq i32 %35, 46
  br i1 %36, label %37, label %78

37:                                               ; preds = %33
  %38 = load ptr, ptr %3, align 8
  %39 = getelementptr inbounds %"class.Json::Reader", ptr %5, i32 0, i32 5
  store ptr %38, ptr %39, align 8
  %40 = getelementptr inbounds %"class.Json::Reader", ptr %5, i32 0, i32 4
  %41 = load ptr, ptr %40, align 8
  %42 = icmp ult ptr %38, %41
  br i1 %42, label %43, label %48

43:                                               ; preds = %37
  %44 = load ptr, ptr %3, align 8
  %45 = getelementptr inbounds i8, ptr %44, i32 1
  store ptr %45, ptr %3, align 8
  %46 = load i8, ptr %44, align 1
  %47 = sext i8 %46 to i32
  br label %49

48:                                               ; preds = %37
  br label %49

49:                                               ; preds = %48, %43
  %50 = phi i32 [ %47, %43 ], [ 0, %48 ]
  %51 = trunc i32 %50 to i8
  store i8 %51, ptr %4, align 1
  br label %52

52:                                               ; preds = %74, %49
  %53 = load i8, ptr %4, align 1
  %54 = sext i8 %53 to i32
  %55 = icmp sge i32 %54, 48
  br i1 %55, label %56, label %60

56:                                               ; preds = %52
  %57 = load i8, ptr %4, align 1
  %58 = sext i8 %57 to i32
  %59 = icmp sle i32 %58, 57
  br label %60

60:                                               ; preds = %56, %52
  %61 = phi i1 [ false, %52 ], [ %59, %56 ]
  br i1 %61, label %62, label %77

62:                                               ; preds = %60
  %63 = load ptr, ptr %3, align 8
  %64 = getelementptr inbounds %"class.Json::Reader", ptr %5, i32 0, i32 5
  store ptr %63, ptr %64, align 8
  %65 = getelementptr inbounds %"class.Json::Reader", ptr %5, i32 0, i32 4
  %66 = load ptr, ptr %65, align 8
  %67 = icmp ult ptr %63, %66
  br i1 %67, label %68, label %73

68:                                               ; preds = %62
  %69 = load ptr, ptr %3, align 8
  %70 = getelementptr inbounds i8, ptr %69, i32 1
  store ptr %70, ptr %3, align 8
  %71 = load i8, ptr %69, align 1
  %72 = sext i8 %71 to i32
  br label %74

73:                                               ; preds = %62
  br label %74

74:                                               ; preds = %73, %68
  %75 = phi i32 [ %72, %68 ], [ 0, %73 ]
  %76 = trunc i32 %75 to i8
  store i8 %76, ptr %4, align 1
  br label %52, !llvm.loop !16

77:                                               ; preds = %60
  br label %78

78:                                               ; preds = %77, %33
  %79 = load i8, ptr %4, align 1
  %80 = sext i8 %79 to i32
  %81 = icmp eq i32 %80, 101
  br i1 %81, label %86, label %82

82:                                               ; preds = %78
  %83 = load i8, ptr %4, align 1
  %84 = sext i8 %83 to i32
  %85 = icmp eq i32 %84, 69
  br i1 %85, label %86, label %150

86:                                               ; preds = %82, %78
  %87 = load ptr, ptr %3, align 8
  %88 = getelementptr inbounds %"class.Json::Reader", ptr %5, i32 0, i32 5
  store ptr %87, ptr %88, align 8
  %89 = getelementptr inbounds %"class.Json::Reader", ptr %5, i32 0, i32 4
  %90 = load ptr, ptr %89, align 8
  %91 = icmp ult ptr %87, %90
  br i1 %91, label %92, label %97

92:                                               ; preds = %86
  %93 = load ptr, ptr %3, align 8
  %94 = getelementptr inbounds i8, ptr %93, i32 1
  store ptr %94, ptr %3, align 8
  %95 = load i8, ptr %93, align 1
  %96 = sext i8 %95 to i32
  br label %98

97:                                               ; preds = %86
  br label %98

98:                                               ; preds = %97, %92
  %99 = phi i32 [ %96, %92 ], [ 0, %97 ]
  %100 = trunc i32 %99 to i8
  store i8 %100, ptr %4, align 1
  %101 = load i8, ptr %4, align 1
  %102 = sext i8 %101 to i32
  %103 = icmp eq i32 %102, 43
  br i1 %103, label %108, label %104

104:                                              ; preds = %98
  %105 = load i8, ptr %4, align 1
  %106 = sext i8 %105 to i32
  %107 = icmp eq i32 %106, 45
  br i1 %107, label %108, label %123

108:                                              ; preds = %104, %98
  %109 = load ptr, ptr %3, align 8
  %110 = getelementptr inbounds %"class.Json::Reader", ptr %5, i32 0, i32 5
  store ptr %109, ptr %110, align 8
  %111 = getelementptr inbounds %"class.Json::Reader", ptr %5, i32 0, i32 4
  %112 = load ptr, ptr %111, align 8
  %113 = icmp ult ptr %109, %112
  br i1 %113, label %114, label %119

114:                                              ; preds = %108
  %115 = load ptr, ptr %3, align 8
  %116 = getelementptr inbounds i8, ptr %115, i32 1
  store ptr %116, ptr %3, align 8
  %117 = load i8, ptr %115, align 1
  %118 = sext i8 %117 to i32
  br label %120

119:                                              ; preds = %108
  br label %120

120:                                              ; preds = %119, %114
  %121 = phi i32 [ %118, %114 ], [ 0, %119 ]
  %122 = trunc i32 %121 to i8
  store i8 %122, ptr %4, align 1
  br label %123

123:                                              ; preds = %120, %104
  br label %124

124:                                              ; preds = %146, %123
  %125 = load i8, ptr %4, align 1
  %126 = sext i8 %125 to i32
  %127 = icmp sge i32 %126, 48
  br i1 %127, label %128, label %132

128:                                              ; preds = %124
  %129 = load i8, ptr %4, align 1
  %130 = sext i8 %129 to i32
  %131 = icmp sle i32 %130, 57
  br label %132

132:                                              ; preds = %128, %124
  %133 = phi i1 [ false, %124 ], [ %131, %128 ]
  br i1 %133, label %134, label %149

134:                                              ; preds = %132
  %135 = load ptr, ptr %3, align 8
  %136 = getelementptr inbounds %"class.Json::Reader", ptr %5, i32 0, i32 5
  store ptr %135, ptr %136, align 8
  %137 = getelementptr inbounds %"class.Json::Reader", ptr %5, i32 0, i32 4
  %138 = load ptr, ptr %137, align 8
  %139 = icmp ult ptr %135, %138
  br i1 %139, label %140, label %145

140:                                              ; preds = %134
  %141 = load ptr, ptr %3, align 8
  %142 = getelementptr inbounds i8, ptr %141, i32 1
  store ptr %142, ptr %3, align 8
  %143 = load i8, ptr %141, align 1
  %144 = sext i8 %143 to i32
  br label %146

145:                                              ; preds = %134
  br label %146

146:                                              ; preds = %145, %140
  %147 = phi i32 [ %144, %140 ], [ 0, %145 ]
  %148 = trunc i32 %147 to i8
  store i8 %148, ptr %4, align 1
  br label %124, !llvm.loop !17

149:                                              ; preds = %132
  br label %150

150:                                              ; preds = %149, %82
  ret void
}