; Function Attrs: mustprogress nofree norecurse nosync nounwind memory(read, argmem: readwrite, inaccessiblemem: none) uwtable
define dso_local void @_ZN4Json6Reader10readNumberEv(ptr nocapture noundef nonnull align 8 dereferenceable(267) %0) local_unnamed_addr #12 align 2 {
  %2 = getelementptr inbounds i8, ptr %0, i64 208
  %3 = load ptr, ptr %2, align 8
  %4 = getelementptr inbounds i8, ptr %0, i64 200
  %5 = load ptr, ptr %4, align 8
  br label %6

6:                                                ; preds = %1, %8
  %.02835 = phi ptr [ %3, %1 ], [ %9, %8 ]
  store ptr %.02835, ptr %2, align 8
  %7 = icmp ult ptr %.02835, %5
  br i1 %7, label %8, label %.loopexit

8:                                                ; preds = %6
  %9 = getelementptr inbounds i8, ptr %.02835, i64 1
  %10 = load i8, ptr %.02835, align 1
  %11 = add i8 %10, -48
  %12 = icmp ult i8 %11, 10
  br i1 %12, label %6, label %13, !llvm.loop !56

13:                                               ; preds = %8
  %14 = icmp eq i8 %10, 46
  br i1 %14, label %15, label %.loopexit34

15:                                               ; preds = %13
  store ptr %9, ptr %2, align 8
  %16 = icmp ult ptr %9, %5
  br i1 %16, label %17, label %.loopexit

17:                                               ; preds = %15
  %18 = getelementptr inbounds i8, ptr %.02835, i64 2
  %19 = load i8, ptr %9, align 1
  %20 = add i8 %19, -48
  %21 = icmp ult i8 %20, 10
  br i1 %21, label %.lr.ph, label %.loopexit34

.lr.ph:                                           ; preds = %17, %23
  %.33136 = phi ptr [ %24, %23 ], [ %18, %17 ]
  store ptr %.33136, ptr %2, align 8
  %22 = icmp ult ptr %.33136, %5
  br i1 %22, label %23, label %.loopexit

23:                                               ; preds = %.lr.ph
  %24 = getelementptr inbounds i8, ptr %.33136, i64 1
  %25 = load i8, ptr %.33136, align 1
  %26 = add i8 %25, -48
  %27 = icmp ult i8 %26, 10
  br i1 %27, label %.lr.ph, label %.loopexit34, !llvm.loop !57

.loopexit34:                                      ; preds = %23, %17, %13
  %.5 = phi ptr [ %9, %13 ], [ %18, %17 ], [ %24, %23 ]
  %.2 = phi i8 [ %10, %13 ], [ %19, %17 ], [ %25, %23 ]
  %28 = and i8 %.2, -33
  %or.cond = icmp eq i8 %28, 69
  br i1 %or.cond, label %29, label %.loopexit

29:                                               ; preds = %.loopexit34
  store ptr %.5, ptr %2, align 8
  %30 = icmp ult ptr %.5, %5
  br i1 %30, label %31, label %.loopexit

31:                                               ; preds = %29
  %32 = getelementptr inbounds i8, ptr %.5, i64 1
  %33 = load i8, ptr %.5, align 1
  switch i8 %33, label %.thread [
    i8 45, label %34
    i8 43, label %34
  ]

34:                                               ; preds = %31, %31
  store ptr %32, ptr %2, align 8
  %35 = icmp ult ptr %32, %5
  br i1 %35, label %36, label %.loopexit

36:                                               ; preds = %34
  %37 = getelementptr inbounds i8, ptr %.5, i64 2
  %38 = load i8, ptr %32, align 1
  br label %.thread

.thread:                                          ; preds = %36, %31
  %.8 = phi ptr [ %32, %31 ], [ %37, %36 ]
  %.3 = phi i8 [ %33, %31 ], [ %38, %36 ]
  %39 = add i8 %.3, -48
  %40 = icmp ult i8 %39, 10
  br i1 %40, label %.lr.ph39, label %.loopexit

.lr.ph39:                                         ; preds = %.thread, %42
  %.938 = phi ptr [ %43, %42 ], [ %.8, %.thread ]
  store ptr %.938, ptr %2, align 8
  %41 = icmp ult ptr %.938, %5
  br i1 %41, label %42, label %.loopexit

42:                                               ; preds = %.lr.ph39
  %43 = getelementptr inbounds i8, ptr %.938, i64 1
  %44 = load i8, ptr %.938, align 1
  %45 = add i8 %44, -48
  %46 = icmp ult i8 %45, 10
  br i1 %46, label %.lr.ph39, label %.loopexit, !llvm.loop !58

.loopexit:                                        ; preds = %6, %.lr.ph, %.lr.ph39, %42, %29, %34, %15, %.thread, %.loopexit34
  ret void
}